target datalayout = "e-m:e-p270:32:32-p271:32:32-p272:64:64-i64:64-i128:128-f80:128-n8:16:32:64-S128"
target triple = "x86_64-pc-linux-gnu"

%struct.Mfs_Man_t_ = type { ptr, ptr, ptr, ptr, i32, ptr, ptr, ptr, ptr, ptr, ptr, ptr, ptr, i32, i32, i32, i32, ptr, ptr, i32, i32, i32, ptr, ptr, ptr, ptr, ptr, ptr, ptr, i32, i32, ptr, i32, i32, i32, [128 x i32], i32, i32, i32, i32, i32, i32, i32, i32, i32, i32, i32, i32, i32, i32, double, i32, i32, i32, i32, float, float, i64, i64, i64, i64, i64, i64, i64, i64 }
%struct.Cnf_Dat_t_ = type { ptr, i32, i32, i32, ptr, ptr, ptr, ptr, ptr, ptr }
%struct.Mfs_Par_t_ = type { i32, i32, i32, i32, i32, i32, i32, i32, i32, i32, i32, i32, i32, i32, i32, i32, i32 }
%struct.Vec_Int_t_ = type { i32, i32, ptr }
%struct.sat_solver_t = type { i32, i32, i32, i32, %struct.Sat_Mem_t_, i32, i32, ptr, ptr, i32, i32, i32, i32, i32, i64, i64, i64, ptr, ptr, i32, i32, %struct.veci_t, ptr, i32, ptr, ptr, ptr, ptr, ptr, ptr, ptr, ptr, %struct.veci_t, %struct.veci_t, %struct.veci_t, %struct.veci_t, ptr, %struct.veci_t, i32, i32, i32, double, double, i32, i32, i32, %struct.stats_t, i32, i32, i32, i32, i32, i64, i64, i64, %struct.veci_t, ptr, i32, i32, i32, %struct.veci_t, %struct.veci_t, i32, i32, i32, ptr, ptr, i32, ptr, i32, i32, %struct.veci_t, %struct.veci_t, %struct.veci_t, ptr, ptr, i32, ptr }
%struct.Sat_Mem_t_ = type { [2 x i32], [2 x i32], [2 x i32], [2 x i32], i32, i32, i32, i32, ptr }
%struct.stats_t = type { i32, i32, i32, i64, i64, i64, i64, i64, i64, i64 }
%struct.veci_t = type { i32, i32, ptr }
%struct.Abc_Ntk_t_ = type { i32, i32, ptr, ptr, ptr, ptr, ptr, ptr, ptr, ptr, ptr, ptr, ptr, [11 x i32], i32, i32, i32, i32, ptr, i32, ptr, ptr, i32, i32, i32, double, i32, %struct.Vec_Int_t_, ptr, ptr, ptr, ptr, ptr, float, i32, ptr, ptr, ptr, ptr, ptr, ptr, ptr, ptr, ptr, ptr, ptr, ptr, ptr, ptr, ptr, ptr, ptr, ptr, ptr, ptr, ptr, ptr }

@Abc_NtkMfsInterplate.Counter = internal global i32 0, align 4
@.str = private unnamed_addr constant [24 x i8] c"cnf\\pj1_if6_mfs%03d.cnf\00", align 1
@.str.1 = private unnamed_addr constant [46 x i8] c"File %s has UNSAT problem with %d conflicts.\0A\00", align 1

; Function Attrs: inlinehint nounwind uwtable
define internal i32 @Vec_IntEntry(ptr noundef %0, i32 noundef %1) #2 {
  %3 = alloca ptr, align 8
  %4 = alloca i32, align 4
  store ptr %0, ptr %3, align 8, !tbaa !65
  store i32 %1, ptr %4, align 4, !tbaa !8
  %5 = load ptr, ptr %3, align 8, !tbaa !65
  %6 = getelementptr inbounds nuw %struct.Vec_Int_t_, ptr %5, i32 0, i32 2
  %7 = load ptr, ptr %6, align 8, !tbaa !71
  %8 = load i32, ptr %4, align 4, !tbaa !8
  %9 = sext i32 %8 to i64
  %10 = getelementptr inbounds i32, ptr %7, i64 %9
  %11 = load i32, ptr %10, align 4, !tbaa !8
  ret i32 %11
}

; Function Attrs: inlinehint nounwind uwtable
define internal i32 @lit_var(i32 noundef %0) #2 {
  %2 = alloca i32, align 4
  store i32 %0, ptr %2, align 4, !tbaa !8
  %3 = load i32, ptr %2, align 4, !tbaa !8
  %4 = ashr i32 %3, 1
  ret i32 %4
}

; Function Attrs: nounwind uwtable
define ptr @Abc_NtkMfsInterplate(ptr noundef %0, ptr noundef %1, i32 noundef %2) #0 {
  %4 = alloca ptr, align 8
  %5 = alloca ptr, align 8
  %6 = alloca ptr, align 8
  %7 = alloca i32, align 4
  %8 = alloca i32, align 4
  %9 = alloca [32 x i8], align 16
  %10 = alloca ptr, align 8
  %11 = alloca ptr, align 8
  %12 = alloca ptr, align 8
  %13 = alloca ptr, align 8
  %14 = alloca ptr, align 8
  %15 = alloca i32, align 4
  %16 = alloca i32, align 4
  %17 = alloca i32, align 4
  %18 = alloca i32, align 4
  %19 = alloca ptr, align 8
  %20 = alloca i32, align 4
  store ptr %0, ptr %5, align 8, !tbaa !10
  store ptr %1, ptr %6, align 8, !tbaa !12
  store i32 %2, ptr %7, align 4, !tbaa !8
  call void @llvm.lifetime.start.p0(i64 4, ptr %8) #7
  store i32 0, ptr %8, align 4, !tbaa !8
  call void @llvm.lifetime.start.p0(i64 32, ptr %9) #7
  call void @llvm.lifetime.start.p0(i64 8, ptr %10) #7
  call void @llvm.lifetime.start.p0(i64 8, ptr %11) #7
  store ptr null, ptr %11, align 8, !tbaa !72
  call void @llvm.lifetime.start.p0(i64 8, ptr %12) #7
  call void @llvm.lifetime.start.p0(i64 8, ptr %13) #7
  call void @llvm.lifetime.start.p0(i64 8, ptr %14) #7
  call void @llvm.lifetime.start.p0(i64 4, ptr %15) #7
  call void @llvm.lifetime.start.p0(i64 4, ptr %16) #7
  call void @llvm.lifetime.start.p0(i64 4, ptr %17) #7
  call void @llvm.lifetime.start.p0(i64 4, ptr %18) #7
  call void @llvm.lifetime.start.p0(i64 8, ptr %19) #7
  %21 = load ptr, ptr %5, align 8, !tbaa !10
  %22 = load ptr, ptr %6, align 8, !tbaa !12
  %23 = load i32, ptr %7, align 4, !tbaa !8
  %24 = call ptr @Abc_MfsCreateSolverResub(ptr noundef %21, ptr noundef %22, i32 noundef %23, i32 noundef 0)
  store ptr %24, ptr %10, align 8, !tbaa !3
  %25 = load i32, ptr %8, align 4, !tbaa !8
  %26 = icmp ne i32 %25, 0
  br i1 %26, label %27, label %34

27:                                               ; preds = %3
  %28 = getelementptr inbounds [32 x i8], ptr %9, i64 0, i64 0
  %29 = load i32, ptr @Abc_NtkMfsInterplate.Counter, align 4, !tbaa !8
  %30 = add nsw i32 %29, 1
  store i32 %30, ptr @Abc_NtkMfsInterplate.Counter, align 4, !tbaa !8
  %31 = call i32 (ptr, ptr, ...) @sprintf(ptr noundef %28, ptr noundef @.str, i32 noundef %29) #7
  %32 = load ptr, ptr %10, align 8, !tbaa !3
  %33 = getelementptr inbounds [32 x i8], ptr %9, i64 0, i64 0
  call void @Sat_SolverWriteDimacs(ptr noundef %32, ptr noundef %33, ptr noundef null, ptr noundef null, i32 noundef 1)
  br label %34

34:                                               ; preds = %27, %3
  %35 = load ptr, ptr %10, align 8, !tbaa !3
  %36 = load ptr, ptr %5, align 8, !tbaa !10
  %37 = getelementptr inbounds nuw %struct.Mfs_Man_t_, ptr %36, i32 0, i32 0
  %38 = load ptr, ptr %37, align 8, !tbaa !50
  %39 = getelementptr inbounds nuw %struct.Mfs_Par_t_, ptr %38, i32 0, i32 5
  %40 = load i32, ptr %39, align 4, !tbaa !74
  %41 = sext i32 %40 to i64
  %42 = call i32 @sat_solver_solve(ptr noundef %35, ptr noundef null, ptr noundef null, i64 noundef %41, i64 noundef 0, i64 noundef 0, i64 noundef 0)
  store i32 %42, ptr %16, align 4, !tbaa !8
  %43 = load i32, ptr %8, align 4, !tbaa !8
  %44 = icmp ne i32 %43, 0
  br i1 %44, label %45, label %53

45:                                               ; preds = %34
  %46 = getelementptr inbounds [32 x i8], ptr %9, i64 0, i64 0
  %47 = load ptr, ptr %10, align 8, !tbaa !3
  %48 = getelementptr inbounds nuw %struct.sat_solver_t, ptr %47, i32 0, i32 46
  %49 = getelementptr inbounds nuw %struct.stats_t, ptr %48, i32 0, i32 6
  %50 = load i64, ptr %49, align 8, !tbaa !78
  %51 = trunc i64 %50 to i32
  %52 = call i32 (ptr, ...) @printf(ptr noundef @.str.1, ptr noundef %46, i32 noundef %51)
  br label %53

53:                                               ; preds = %45, %34
  %54 = load i32, ptr %16, align 4, !tbaa !8
  %55 = icmp ne i32 %54, -1
  br i1 %55, label %56, label %61

56:                                               ; preds = %53
  %57 = load ptr, ptr %5, align 8, !tbaa !10
  %58 = getelementptr inbounds nuw %struct.Mfs_Man_t_, ptr %57, i32 0, i32 46
  %59 = load i32, ptr %58, align 4, !tbaa !75
  %60 = add nsw i32 %59, 1
  store i32 %60, ptr %58, align 4, !tbaa !75
  store ptr null, ptr %4, align 8
  store i32 1, ptr %20, align 4
  br label %122

61:                                               ; preds = %53
  %62 = load ptr, ptr %10, align 8, !tbaa !3
  %63 = call ptr @sat_solver_store_release(ptr noundef %62)
  store ptr %63, ptr %11, align 8, !tbaa !72
  %64 = load ptr, ptr %10, align 8, !tbaa !3
  call void @sat_solver_delete(ptr noundef %64)
  %65 = load ptr, ptr %5, align 8, !tbaa !10
  %66 = getelementptr inbounds nuw %struct.Mfs_Man_t_, ptr %65, i32 0, i32 25
  %67 = load ptr, ptr %66, align 8, !tbaa !76
  %68 = load i32, ptr %7, align 4, !tbaa !8
  %69 = call ptr @Int_ManSetGlobalVars(ptr noundef %67, i32 noundef %68)
  store ptr %69, ptr %19, align 8, !tbaa !12
  store i32 0, ptr %17, align 4, !tbaa !8
  br label %70

70:                                               ; preds = %97, %61
  %71 = load i32, ptr %17, align 4, !tbaa !8
  %72 = load i32, ptr %7, align 4, !tbaa !8
  %73 = icmp slt i32 %71, %72
  br i1 %73, label %74, label %100

74:                                               ; preds = %70
  %75 = load ptr, ptr %6, align 8, !tbaa !12
  %76 = load i32, ptr %17, align 4, !tbaa !8
  %77 = sext i32 %76 to i64
  %78 = getelementptr inbounds i32, ptr %75, i64 %77
  %79 = load i32, ptr %78, align 4, !tbaa !8
  %80 = call i32 @lit_var(i32 noundef %79)
  %81 = load ptr, ptr %5, align 8, !tbaa !10
  %82 = getelementptr inbounds nuw %struct.Mfs_Man_t_, ptr %81, i32 0, i32 23
  %83 = load ptr, ptr %82, align 8, !tbaa !31
  %84 = getelementptr inbounds nuw %struct.Cnf_Dat_t_, ptr %83, i32 0, i32 1
  %85 = load i32, ptr %84, align 8, !tbaa !46
  %86 = mul nsw i32 2, %85
  %87 = sub nsw i32 %80, %86
  store i32 %87, ptr %18, align 4, !tbaa !8
  %88 = load ptr, ptr %5, align 8, !tbaa !10
  %89 = getelementptr inbounds nuw %struct.Mfs_Man_t_, ptr %88, i32 0, i32 10
  %90 = load ptr, ptr %89, align 8, !tbaa !38
  %91 = load i32, ptr %18, align 4, !tbaa !8
  %92 = call i32 @Vec_IntEntry(ptr noundef %90, i32 noundef %91)
  %93 = load ptr, ptr %19, align 8, !tbaa !12
  %94 = load i32, ptr %17, align 4, !tbaa !8
  %95 = sext i32 %94 to i64
  %96 = getelementptr inbounds i32, ptr %93, i64 %95
  store i32 %92, ptr %96, align 4, !tbaa !8
  br label %97

97:                                               ; preds = %74
  %98 = load i32, ptr %17, align 4, !tbaa !8
  %99 = add nsw i32 %98, 1
  store i32 %99, ptr %17, align 4, !tbaa !8
  br label %70, !llvm.loop !88

100:                                              ; preds = %70
  %101 = load ptr, ptr %5, align 8, !tbaa !10
  %102 = getelementptr inbounds nuw %struct.Mfs_Man_t_, ptr %101, i32 0, i32 25
  %103 = load ptr, ptr %102, align 8, !tbaa !76
  %104 = load ptr, ptr %11, align 8, !tbaa !72
  %105 = call i32 @Int_ManInterpolate(ptr noundef %103, ptr noundef %104, i32 noundef 0, ptr noundef %12)
  store i32 %105, ptr %15, align 4, !tbaa !8
  %106 = load ptr, ptr %11, align 8, !tbaa !72
  call void @Sto_ManFree(ptr noundef %106)
  %107 = load ptr, ptr %12, align 8, !tbaa !12
  %108 = load i32, ptr %15, align 4, !tbaa !8
  %109 = load ptr, ptr %5, align 8, !tbaa !10
  %110 = getelementptr inbounds nuw %struct.Mfs_Man_t_, ptr %109, i32 0, i32 26
  %111 = load ptr, ptr %110, align 8, !tbaa !89
  %112 = call ptr @Kit_TruthToGraph(ptr noundef %107, i32 noundef %108, ptr noundef %111)
  store ptr %112, ptr %13, align 8, !tbaa !90
  %113 = load ptr, ptr %5, align 8, !tbaa !10
  %114 = getelementptr inbounds nuw %struct.Mfs_Man_t_, ptr %113, i32 0, i32 1
  %115 = load ptr, ptr %114, align 8, !tbaa !92
  %116 = getelementptr inbounds nuw %struct.Abc_Ntk_t_, ptr %115, i32 0, i32 30
  %117 = load ptr, ptr %116, align 8, !tbaa !93
  %118 = load ptr, ptr %13, align 8, !tbaa !90
  %119 = call ptr @Kit_GraphToHop(ptr noundef %117, ptr noundef %118)
  store ptr %119, ptr %14, align 8, !tbaa !101
  %120 = load ptr, ptr %13, align 8, !tbaa !90
  call void @Kit_GraphFree(ptr noundef %120)
  %121 = load ptr, ptr %14, align 8, !tbaa !101
  store ptr %121, ptr %4, align 8
  store i32 1, ptr %20, align 4
  br label %122

122:                                              ; preds = %100, %56
  call void @llvm.lifetime.end.p0(i64 8, ptr %19) #7
  call void @llvm.lifetime.end.p0(i64 4, ptr %18) #7
  call void @llvm.lifetime.end.p0(i64 4, ptr %17) #7
  call void @llvm.lifetime.end.p0(i64 4, ptr %16) #7
  call void @llvm.lifetime.end.p0(i64 4, ptr %15) #7
  call void @llvm.lifetime.end.p0(i64 8, ptr %14) #7
  call void @llvm.lifetime.end.p0(i64 8, ptr %13) #7
  call void @llvm.lifetime.end.p0(i64 8, ptr %12) #7
  call void @llvm.lifetime.end.p0(i64 8, ptr %11) #7
  call void @llvm.lifetime.end.p0(i64 8, ptr %10) #7
  call void @llvm.lifetime.end.p0(i64 32, ptr %9) #7
  call void @llvm.lifetime.end.p0(i64 4, ptr %8) #7
  %123 = load ptr, ptr %4, align 8
  ret ptr %123
}