; Function Attrs: nounwind uwtable
define ptr @Abc_NtkMfsInterplate(ptr noundef %0, ptr noundef %1, i32 noundef %2) local_unnamed_addr #0 {
  %4 = alloca ptr, align 8
  call void @llvm.lifetime.start.p0(i64 8, ptr nonnull %4) #5
  %5 = tail call ptr @Abc_MfsCreateSolverResub(ptr noundef %0, ptr noundef %1, i32 noundef %2, i32 noundef 0)
  %6 = load ptr, ptr %0, align 8, !tbaa !54
  %7 = getelementptr inbounds nuw i8, ptr %6, i64 20
  %8 = load i32, ptr %7, align 4, !tbaa !65
  %9 = sext i32 %8 to i64
  %10 = tail call i32 @sat_solver_solve(ptr noundef %5, ptr noundef null, ptr noundef null, i64 noundef %9, i64 noundef 0, i64 noundef 0, i64 noundef 0) #5
  %.not = icmp eq i32 %10, -1
  br i1 %.not, label %15, label %11

11:                                               ; preds = %3
  %12 = getelementptr inbounds nuw i8, ptr %0, i64 788
  %13 = load i32, ptr %12, align 4, !tbaa !66
  %14 = add nsw i32 %13, 1
  store i32 %14, ptr %12, align 4, !tbaa !66
  br label %49

15:                                               ; preds = %3
  %16 = tail call ptr @sat_solver_store_release(ptr noundef %5) #5
  tail call void @sat_solver_delete(ptr noundef %5) #5
  %17 = getelementptr inbounds nuw i8, ptr %0, i64 176
  %18 = load ptr, ptr %17, align 8, !tbaa !67
  %19 = tail call ptr @Int_ManSetGlobalVars(ptr noundef %18, i32 noundef %2) #5
  %20 = icmp sgt i32 %2, 0
  br i1 %20, label %.lr.ph, label %._crit_edge

.lr.ph:                                           ; preds = %15
  %21 = getelementptr inbounds nuw i8, ptr %0, i64 160
  %22 = load ptr, ptr %21, align 8, !tbaa !37
  %23 = getelementptr inbounds nuw i8, ptr %22, i64 8
  %24 = getelementptr inbounds nuw i8, ptr %0, i64 80
  %25 = load ptr, ptr %24, align 8, !tbaa !42
  %26 = getelementptr i8, ptr %25, i64 8
  %.val = load ptr, ptr %26, align 8, !tbaa !46
  %wide.trip.count = zext nneg i32 %2 to i64
  br label %27

27:                                               ; preds = %.lr.ph, %27
  %indvars.iv = phi i64 [ 0, %.lr.ph ], [ %indvars.iv.next, %27 ]
  %28 = getelementptr inbounds nuw i32, ptr %1, i64 %indvars.iv
  %29 = load i32, ptr %28, align 4, !tbaa !3
  %30 = ashr i32 %29, 1
  %31 = load i32, ptr %23, align 8, !tbaa !49
  %32 = shl nsw i32 %31, 1
  %33 = sub nsw i32 %30, %32
  %34 = sext i32 %33 to i64
  %35 = getelementptr inbounds i32, ptr %.val, i64 %34
  %36 = load i32, ptr %35, align 4, !tbaa !3
  %37 = getelementptr inbounds nuw i32, ptr %19, i64 %indvars.iv
  store i32 %36, ptr %37, align 4, !tbaa !3
  %indvars.iv.next = add nuw nsw i64 %indvars.iv, 1
  %exitcond.not = icmp eq i64 %indvars.iv.next, %wide.trip.count
  br i1 %exitcond.not, label %._crit_edge, label %27, !llvm.loop !69

._crit_edge:                                      ; preds = %27, %15
  %38 = load ptr, ptr %17, align 8, !tbaa !67
  %39 = call i32 @Int_ManInterpolate(ptr noundef %38, ptr noundef %16, i32 noundef 0, ptr noundef nonnull %4) #5
  call void @Sto_ManFree(ptr noundef %16) #5
  %40 = load ptr, ptr %4, align 8, !tbaa !52
  %41 = getelementptr inbounds nuw i8, ptr %0, i64 184
  %42 = load ptr, ptr %41, align 8, !tbaa !70
  %43 = call ptr @Kit_TruthToGraph(ptr noundef %40, i32 noundef %39, ptr noundef %42) #5
  %44 = getelementptr inbounds nuw i8, ptr %0, i64 8
  %45 = load ptr, ptr %44, align 8, !tbaa !71
  %46 = getelementptr inbounds nuw i8, ptr %45, i64 256
  %47 = load ptr, ptr %46, align 8, !tbaa !72
  %48 = call ptr @Kit_GraphToHop(ptr noundef %47, ptr noundef %43) #5
  call void @Kit_GraphFree(ptr noundef %43) #5
  br label %49

49:                                               ; preds = %._crit_edge, %11
  %.0 = phi ptr [ null, %11 ], [ %48, %._crit_edge ]
  call void @llvm.lifetime.end.p0(i64 8, ptr nonnull %4) #5
  ret ptr %.0
}